target datalayout = "e-m:e-p270:32:32-p271:32:32-p272:64:64-i64:64-i128:128-f80:128-n8:16:32:64-S128"
target triple = "x86_64-pc-linux-gnu"

%struct.b2Vec2 = type { float, float }
%struct.b2BodyId = type { i32, i16, i16 }
%struct.b2Rot = type { float, float }
%struct.b2WorldId = type { i16, i16 }
%struct.b2ShapeDef = type { ptr, float, float, float, float, i32, float, %struct.b2Filter, i32, i8, i8, i8, i8, i8, i8, i32 }
%struct.b2Filter = type { i64, i64, i32 }
%struct.b2BodyDef = type { i32, %struct.b2Vec2, %struct.b2Rot, %struct.b2Vec2, float, float, float, float, float, ptr, ptr, i8, i8, i8, i8, i8, i8, i32 }
%struct.b2ShapeId = type { i32, i16, i16 }
%struct.b2Polygon = type { [8 x %struct.b2Vec2], [8 x %struct.b2Vec2], %struct.b2Vec2, float, i32 }
%struct.b2Segment = type { %struct.b2Vec2, %struct.b2Vec2 }

; Function Attrs: nounwind uwtable
define internal void @CreateSmallPyramid(i32 %0, i32 noundef %1, float noundef %2, float noundef %3, float noundef %4) #0 {
  %6 = alloca %struct.b2WorldId, align 2
  %7 = alloca i32, align 4
  %8 = alloca float, align 4
  %9 = alloca float, align 4
  %10 = alloca float, align 4
  %11 = alloca %struct.b2BodyDef, align 8
  %12 = alloca %struct.b2ShapeDef, align 8
  %13 = alloca %struct.b2Polygon, align 4
  %14 = alloca i32, align 4
  %15 = alloca i32, align 4
  %16 = alloca float, align 4
  %17 = alloca i32, align 4
  %18 = alloca float, align 4
  %19 = alloca %struct.b2Vec2, align 4
  %20 = alloca %struct.b2BodyId, align 4
  %21 = alloca %struct.b2ShapeId, align 4
  store i32 %0, ptr %6, align 2
  store i32 %1, ptr %7, align 4, !tbaa !3
  store float %2, ptr %8, align 4, !tbaa !18
  store float %3, ptr %9, align 4, !tbaa !18
  store float %4, ptr %10, align 4, !tbaa !18
  call void @llvm.lifetime.start.p0(i64 80, ptr %11) #9
  call void @b2DefaultBodyDef(ptr dead_on_unwind writable sret(%struct.b2BodyDef) align 8 %11)
  %22 = getelementptr inbounds nuw %struct.b2BodyDef, ptr %11, i32 0, i32 0
  store i32 2, ptr %22, align 8, !tbaa !19
  call void @llvm.lifetime.start.p0(i64 72, ptr %12) #9
  call void @b2DefaultShapeDef(ptr dead_on_unwind writable sret(%struct.b2ShapeDef) align 8 %12)
  call void @llvm.lifetime.start.p0(i64 144, ptr %13) #9
  %23 = load float, ptr %8, align 4, !tbaa !18
  call void @b2MakeSquare(ptr dead_on_unwind writable sret(%struct.b2Polygon) align 4 %13, float noundef %23)
  call void @llvm.lifetime.start.p0(i64 4, ptr %14) #9
  store i32 0, ptr %14, align 4, !tbaa !3
  br label %24

24:                                               ; preds = %74, %5
  %25 = load i32, ptr %14, align 4, !tbaa !3
  %26 = load i32, ptr %7, align 4, !tbaa !3
  %27 = icmp slt i32 %25, %26
  br i1 %27, label %29, label %28

28:                                               ; preds = %24
  store i32 2, ptr %15, align 4
  call void @llvm.lifetime.end.p0(i64 4, ptr %14) #9
  br label %77

29:                                               ; preds = %24
  call void @llvm.lifetime.start.p0(i64 4, ptr %16) #9
  %30 = load i32, ptr %14, align 4, !tbaa !3
  %31 = sitofp i32 %30 to float
  %32 = fmul float 2.000000e+00, %31
  %33 = fadd float %32, 1.000000e+00
  %34 = load float, ptr %8, align 4, !tbaa !18
  %35 = fmul float %33, %34
  %36 = load float, ptr %10, align 4, !tbaa !18
  %37 = fadd float %35, %36
  store float %37, ptr %16, align 4, !tbaa !18
  call void @llvm.lifetime.start.p0(i64 4, ptr %17) #9
  %38 = load i32, ptr %14, align 4, !tbaa !3
  store i32 %38, ptr %17, align 4, !tbaa !3
  br label %39

39:                                               ; preds = %70, %29
  %40 = load i32, ptr %17, align 4, !tbaa !3
  %41 = load i32, ptr %7, align 4, !tbaa !3
  %42 = icmp slt i32 %40, %41
  br i1 %42, label %44, label %43

43:                                               ; preds = %39
  store i32 5, ptr %15, align 4
  call void @llvm.lifetime.end.p0(i64 4, ptr %17) #9
  br label %73

44:                                               ; preds = %39
  call void @llvm.lifetime.start.p0(i64 4, ptr %18) #9
  %45 = load i32, ptr %14, align 4, !tbaa !3
  %46 = sitofp i32 %45 to float
  %47 = fadd float %46, 1.000000e+00
  %48 = load float, ptr %8, align 4, !tbaa !18
  %49 = fmul float %47, %48
  %50 = load i32, ptr %17, align 4, !tbaa !3
  %51 = load i32, ptr %14, align 4, !tbaa !3
  %52 = sub nsw i32 %50, %51
  %53 = sitofp i32 %52 to float
  %54 = fmul float 2.000000e+00, %53
  %55 = load float, ptr %8, align 4, !tbaa !18
  %56 = fmul float %54, %55
  %57 = fadd float %49, %56
  %58 = load float, ptr %9, align 4, !tbaa !18
  %59 = fadd float %57, %58
  %60 = fsub float %59, 5.000000e-01
  store float %60, ptr %18, align 4, !tbaa !18
  %61 = getelementptr inbounds nuw %struct.b2BodyDef, ptr %11, i32 0, i32 1
  %62 = getelementptr inbounds nuw %struct.b2Vec2, ptr %19, i32 0, i32 0
  %63 = load float, ptr %18, align 4, !tbaa !18
  store float %63, ptr %62, align 4, !tbaa !24
  %64 = getelementptr inbounds nuw %struct.b2Vec2, ptr %19, i32 0, i32 1
  %65 = load float, ptr %16, align 4, !tbaa !18
  store float %65, ptr %64, align 4, !tbaa !25
  call void @llvm.memcpy.p0.p0.i64(ptr align 4 %61, ptr align 4 %19, i64 8, i1 false), !tbaa.struct !26
  call void @llvm.lifetime.start.p0(i64 8, ptr %20) #9
  %66 = load i32, ptr %6, align 2
  %67 = call i64 @b2CreateBody(i32 %66, ptr noundef %11)
  store i64 %67, ptr %20, align 4
  %68 = load i64, ptr %20, align 4
  %69 = call i64 @b2CreatePolygonShape(i64 %68, ptr noundef %12, ptr noundef %13)
  store i64 %69, ptr %21, align 4
  call void @llvm.lifetime.end.p0(i64 8, ptr %20) #9
  call void @llvm.lifetime.end.p0(i64 4, ptr %18) #9
  br label %70

70:                                               ; preds = %44
  %71 = load i32, ptr %17, align 4, !tbaa !3
  %72 = add nsw i32 %71, 1
  store i32 %72, ptr %17, align 4, !tbaa !3
  br label %39, !llvm.loop !39

73:                                               ; preds = %43
  call void @llvm.lifetime.end.p0(i64 4, ptr %16) #9
  br label %74

74:                                               ; preds = %73
  %75 = load i32, ptr %14, align 4, !tbaa !3
  %76 = add nsw i32 %75, 1
  store i32 %76, ptr %14, align 4, !tbaa !3
  br label %24, !llvm.loop !40

77:                                               ; preds = %28
  call void @llvm.lifetime.end.p0(i64 144, ptr %13) #9
  call void @llvm.lifetime.end.p0(i64 72, ptr %12) #9
  call void @llvm.lifetime.end.p0(i64 80, ptr %11) #9
  ret void
}

; Function Attrs: nounwind uwtable
define void @CreateManyPyramids(i32 %0) #0 {
  %2 = alloca %struct.b2WorldId, align 2
  %3 = alloca i32, align 4
  %4 = alloca float, align 4
  %5 = alloca i32, align 4
  %6 = alloca i32, align 4
  %7 = alloca %struct.b2BodyDef, align 8
  %8 = alloca %struct.b2BodyId, align 4
  %9 = alloca float, align 4
  %10 = alloca float, align 4
  %11 = alloca %struct.b2ShapeDef, align 8
  %12 = alloca float, align 4
  %13 = alloca i32, align 4
  %14 = alloca %struct.b2Segment, align 4
  %15 = alloca %struct.b2ShapeId, align 4
  %16 = alloca float, align 4
  %17 = alloca float, align 4
  %18 = alloca i32, align 4
  %19 = alloca i32, align 4
  %20 = alloca i32, align 4
  %21 = alloca float, align 4
  store i32 %0, ptr %2, align 2
  %22 = load i32, ptr %2, align 2
  call void @b2World_EnableSleeping(i32 %22, i1 noundef zeroext false)
  call void @llvm.lifetime.start.p0(i64 4, ptr %3) #9
  store i32 10, ptr %3, align 4, !tbaa !3
  call void @llvm.lifetime.start.p0(i64 4, ptr %4) #9
  store float 5.000000e-01, ptr %4, align 4, !tbaa !18
  call void @llvm.lifetime.start.p0(i64 4, ptr %5) #9
  store i32 20, ptr %5, align 4, !tbaa !3
  call void @llvm.lifetime.start.p0(i64 4, ptr %6) #9
  store i32 20, ptr %6, align 4, !tbaa !3
  call void @llvm.lifetime.start.p0(i64 80, ptr %7) #9
  call void @b2DefaultBodyDef(ptr dead_on_unwind writable sret(%struct.b2BodyDef) align 8 %7)
  call void @llvm.lifetime.start.p0(i64 8, ptr %8) #9
  %23 = load i32, ptr %2, align 2
  %24 = call i64 @b2CreateBody(i32 %23, ptr noundef %7)
  store i64 %24, ptr %8, align 4
  call void @llvm.lifetime.start.p0(i64 4, ptr %9) #9
  %25 = load float, ptr %4, align 4, !tbaa !18
  %26 = fmul float 2.000000e+00, %25
  %27 = load i32, ptr %3, align 4, !tbaa !3
  %28 = sitofp i32 %27 to float
  %29 = fadd float %28, 1.000000e+00
  %30 = fmul float %26, %29
  store float %30, ptr %9, align 4, !tbaa !18
  call void @llvm.lifetime.start.p0(i64 4, ptr %10) #9
  %31 = load float, ptr %4, align 4, !tbaa !18
  %32 = fmul float 2.000000e+00, %31
  %33 = load i32, ptr %6, align 4, !tbaa !3
  %34 = sitofp i32 %33 to float
  %35 = fmul float %32, %34
  %36 = load i32, ptr %3, align 4, !tbaa !3
  %37 = sitofp i32 %36 to float
  %38 = fadd float %37, 1.000000e+00
  %39 = fmul float %35, %38
  store float %39, ptr %10, align 4, !tbaa !18
  call void @llvm.lifetime.start.p0(i64 72, ptr %11) #9
  call void @b2DefaultShapeDef(ptr dead_on_unwind writable sret(%struct.b2ShapeDef) align 8 %11)
  call void @llvm.lifetime.start.p0(i64 4, ptr %12) #9
  store float 0.000000e+00, ptr %12, align 4, !tbaa !18
  call void @llvm.lifetime.start.p0(i64 4, ptr %13) #9
  store i32 0, ptr %13, align 4, !tbaa !3
  br label %40

40:                                               ; preds = %63, %1
  %41 = load i32, ptr %13, align 4, !tbaa !3
  %42 = load i32, ptr %5, align 4, !tbaa !3
  %43 = icmp slt i32 %41, %42
  br i1 %43, label %45, label %44

44:                                               ; preds = %40
  call void @llvm.lifetime.end.p0(i64 4, ptr %13) #9
  br label %66

45:                                               ; preds = %40
  call void @llvm.lifetime.start.p0(i64 16, ptr %14) #9
  %46 = getelementptr inbounds nuw %struct.b2Segment, ptr %14, i32 0, i32 0
  %47 = getelementptr inbounds nuw %struct.b2Vec2, ptr %46, i32 0, i32 0
  %48 = load float, ptr %10, align 4, !tbaa !18
  %49 = fmul float -1.000000e+00, %48
  store float %49, ptr %47, align 4, !tbaa !24
  %50 = getelementptr inbounds nuw %struct.b2Vec2, ptr %46, i32 0, i32 1
  %51 = load float, ptr %12, align 4, !tbaa !18
  store float %51, ptr %50, align 4, !tbaa !25
  %52 = getelementptr inbounds nuw %struct.b2Segment, ptr %14, i32 0, i32 1
  %53 = getelementptr inbounds nuw %struct.b2Vec2, ptr %52, i32 0, i32 0
  %54 = load float, ptr %10, align 4, !tbaa !18
  %55 = fmul float 1.000000e+00, %54
  store float %55, ptr %53, align 4, !tbaa !24
  %56 = getelementptr inbounds nuw %struct.b2Vec2, ptr %52, i32 0, i32 1
  %57 = load float, ptr %12, align 4, !tbaa !18
  store float %57, ptr %56, align 4, !tbaa !25
  %58 = load i64, ptr %8, align 4
  %59 = call i64 @b2CreateSegmentShape(i64 %58, ptr noundef %11, ptr noundef %14)
  store i64 %59, ptr %15, align 4
  %60 = load float, ptr %9, align 4, !tbaa !18
  %61 = load float, ptr %12, align 4, !tbaa !18
  %62 = fadd float %61, %60
  store float %62, ptr %12, align 4, !tbaa !18
  call void @llvm.lifetime.end.p0(i64 16, ptr %14) #9
  br label %63

63:                                               ; preds = %45
  %64 = load i32, ptr %13, align 4, !tbaa !3
  %65 = add nsw i32 %64, 1
  store i32 %65, ptr %13, align 4, !tbaa !3
  br label %40, !llvm.loop !36

66:                                               ; preds = %44
  call void @llvm.lifetime.start.p0(i64 4, ptr %16) #9
  %67 = load float, ptr %4, align 4, !tbaa !18
  %68 = fmul float 2.000000e+00, %67
  %69 = load i32, ptr %3, align 4, !tbaa !3
  %70 = sitofp i32 %69 to float
  %71 = fmul float %68, %70
  store float %71, ptr %16, align 4, !tbaa !18
  call void @llvm.lifetime.start.p0(i64 4, ptr %17) #9
  store float 0.000000e+00, ptr %17, align 4, !tbaa !18
  call void @llvm.lifetime.start.p0(i64 4, ptr %18) #9
  store i32 0, ptr %18, align 4, !tbaa !3
  br label %72

72:                                               ; preds = %108, %66
  %73 = load i32, ptr %18, align 4, !tbaa !3
  %74 = load i32, ptr %5, align 4, !tbaa !3
  %75 = icmp slt i32 %73, %74
  br i1 %75, label %77, label %76

76:                                               ; preds = %72
  store i32 5, ptr %19, align 4
  call void @llvm.lifetime.end.p0(i64 4, ptr %18) #9
  br label %111

77:                                               ; preds = %72
  call void @llvm.lifetime.start.p0(i64 4, ptr %20) #9
  store i32 0, ptr %20, align 4, !tbaa !3
  br label %78

78:                                               ; preds = %101, %77
  %79 = load i32, ptr %20, align 4, !tbaa !3
  %80 = load i32, ptr %6, align 4, !tbaa !3
  %81 = icmp slt i32 %79, %80
  br i1 %81, label %83, label %82

82:                                               ; preds = %78
  store i32 8, ptr %19, align 4
  call void @llvm.lifetime.end.p0(i64 4, ptr %20) #9
  br label %104

83:                                               ; preds = %78
  call void @llvm.lifetime.start.p0(i64 4, ptr %21) #9
  %84 = load float, ptr %10, align 4, !tbaa !18
  %85 = fmul float -5.000000e-01, %84
  %86 = load i32, ptr %20, align 4, !tbaa !3
  %87 = sitofp i32 %86 to float
  %88 = load float, ptr %16, align 4, !tbaa !18
  %89 = load float, ptr %4, align 4, !tbaa !18
  %90 = fmul float 2.000000e+00, %89
  %91 = fadd float %88, %90
  %92 = fmul float %87, %91
  %93 = fadd float %85, %92
  %94 = load float, ptr %4, align 4, !tbaa !18
  %95 = fadd float %93, %94
  store float %95, ptr %21, align 4, !tbaa !18
  %96 = load i32, ptr %3, align 4, !tbaa !3
  %97 = load float, ptr %4, align 4, !tbaa !18
  %98 = load float, ptr %21, align 4, !tbaa !18
  %99 = load float, ptr %17, align 4, !tbaa !18
  %100 = load i32, ptr %2, align 2
  call void @CreateSmallPyramid(i32 %100, i32 noundef %96, float noundef %97, float noundef %98, float noundef %99)
  call void @llvm.lifetime.end.p0(i64 4, ptr %21) #9
  br label %101

101:                                              ; preds = %83
  %102 = load i32, ptr %20, align 4, !tbaa !3
  %103 = add nsw i32 %102, 1
  store i32 %103, ptr %20, align 4, !tbaa !3
  br label %78, !llvm.loop !37

104:                                              ; preds = %82
  %105 = load float, ptr %9, align 4, !tbaa !18
  %106 = load float, ptr %17, align 4, !tbaa !18
  %107 = fadd float %106, %105
  store float %107, ptr %17, align 4, !tbaa !18
  br label %108

108:                                              ; preds = %104
  %109 = load i32, ptr %18, align 4, !tbaa !3
  %110 = add nsw i32 %109, 1
  store i32 %110, ptr %18, align 4, !tbaa !3
  br label %72, !llvm.loop !38

111:                                              ; preds = %76
  call void @llvm.lifetime.end.p0(i64 4, ptr %17) #9
  call void @llvm.lifetime.end.p0(i64 4, ptr %16) #9
  call void @llvm.lifetime.end.p0(i64 4, ptr %12) #9
  call void @llvm.lifetime.end.p0(i64 72, ptr %11) #9
  call void @llvm.lifetime.end.p0(i64 4, ptr %10) #9
  call void @llvm.lifetime.end.p0(i64 4, ptr %9) #9
  call void @llvm.lifetime.end.p0(i64 8, ptr %8) #9
  call void @llvm.lifetime.end.p0(i64 80, ptr %7) #9
  call void @llvm.lifetime.end.p0(i64 4, ptr %6) #9
  call void @llvm.lifetime.end.p0(i64 4, ptr %5) #9
  call void @llvm.lifetime.end.p0(i64 4, ptr %4) #9
  call void @llvm.lifetime.end.p0(i64 4, ptr %3) #9
  ret void
}