; Function Attrs: nounwind uwtable
define void @CreateManyPyramids(i32 %0) local_unnamed_addr #0 {
  %2 = alloca %struct.b2BodyDef, align 8
  %3 = alloca %struct.b2ShapeDef, align 8
  %4 = alloca %struct.b2Polygon, align 4
  %5 = alloca %struct.b2BodyDef, align 8
  %6 = alloca %struct.b2ShapeDef, align 8
  %7 = alloca %struct.b2Segment, align 4
  tail call void @b2World_EnableSleeping(i32 %0, i1 noundef zeroext false) #8
  call void @llvm.lifetime.start.p0(i64 80, ptr nonnull %5) #8
  call void @b2DefaultBodyDef(ptr dead_on_unwind nonnull writable sret(%struct.b2BodyDef) align 8 %5) #8
  %8 = call i64 @b2CreateBody(i32 %0, ptr noundef nonnull %5) #8
  call void @llvm.lifetime.start.p0(i64 72, ptr nonnull %6) #8
  call void @b2DefaultShapeDef(ptr dead_on_unwind nonnull writable sret(%struct.b2ShapeDef) align 8 %6) #8
  %9 = getelementptr inbounds nuw i8, ptr %7, i64 4
  %10 = getelementptr inbounds nuw i8, ptr %7, i64 8
  %11 = getelementptr inbounds nuw i8, ptr %7, i64 12
  br label %13

.preheader40:                                     ; preds = %13
  %12 = getelementptr inbounds nuw i8, ptr %2, i64 4
  %.sroa.2.0..sroa_idx.i = getelementptr inbounds nuw i8, ptr %2, i64 8
  br label %.preheader

13:                                               ; preds = %1, %13
  %.042 = phi float [ 0.000000e+00, %1 ], [ %15, %13 ]
  %.03941 = phi i32 [ 0, %1 ], [ %16, %13 ]
  call void @llvm.lifetime.start.p0(i64 16, ptr nonnull %7) #8
  store float -2.200000e+02, ptr %7, align 4, !tbaa !27
  store float %.042, ptr %9, align 4, !tbaa !28
  store float 2.200000e+02, ptr %10, align 4, !tbaa !27
  store float %.042, ptr %11, align 4, !tbaa !28
  %14 = call i64 @b2CreateSegmentShape(i64 %8, ptr noundef nonnull %6, ptr noundef nonnull %7) #8
  %15 = fadd float %.042, 1.100000e+01
  call void @llvm.lifetime.end.p0(i64 16, ptr nonnull %7) #8
  %16 = add nuw nsw i32 %.03941, 1
  %exitcond.not = icmp eq i32 %16, 20
  br i1 %exitcond.not, label %.preheader40, label %13, !llvm.loop !29

.preheader:                                       ; preds = %.preheader40, %18
  %.03745 = phi i32 [ 0, %.preheader40 ], [ %20, %18 ]
  %.03844 = phi float [ 0.000000e+00, %.preheader40 ], [ %19, %18 ]
  br label %21

17:                                               ; preds = %18
  call void @llvm.lifetime.end.p0(i64 72, ptr nonnull %6) #8
  call void @llvm.lifetime.end.p0(i64 80, ptr nonnull %5) #8
  ret void

18:                                               ; preds = %CreateSmallPyramid.exit
  %19 = fadd float %.03844, 1.100000e+01
  %20 = add nuw nsw i32 %.03745, 1
  %exitcond47.not = icmp eq i32 %20, 20
  br i1 %exitcond47.not, label %17, label %.preheader, !llvm.loop !30

21:                                               ; preds = %.preheader, %CreateSmallPyramid.exit
  %.03643 = phi i32 [ 0, %.preheader ], [ %47, %CreateSmallPyramid.exit ]
  %22 = uitofp nneg i32 %.03643 to float
  %23 = fmul float %22, 1.100000e+01
  %24 = fadd float %23, -1.100000e+02
  %25 = fadd float %24, 5.000000e-01
  call void @llvm.lifetime.start.p0(i64 80, ptr nonnull %2) #8
  call void @b2DefaultBodyDef(ptr dead_on_unwind nonnull writable sret(%struct.b2BodyDef) align 8 %2) #8
  store i32 2, ptr %2, align 8, !tbaa !15
  call void @llvm.lifetime.start.p0(i64 72, ptr nonnull %3) #8
  call void @b2DefaultShapeDef(ptr dead_on_unwind nonnull writable sret(%struct.b2ShapeDef) align 8 %3) #8
  call void @llvm.lifetime.start.p0(i64 144, ptr nonnull %4) #8
  call void @b2MakeSquare(ptr dead_on_unwind nonnull writable sret(%struct.b2Polygon) align 4 %4, float noundef 5.000000e-01) #8
  br label %26

26:                                               ; preds = %34, %21
  %.024.i = phi i32 [ 0, %21 ], [ %35, %34 ]
  %27 = uitofp nneg i32 %.024.i to float
  %28 = fmul float %27, 2.000000e+00
  %29 = fadd float %28, 1.000000e+00
  %30 = fmul float %29, 5.000000e-01
  %31 = fadd float %.03844, %30
  %32 = fadd float %27, 1.000000e+00
  %33 = fmul float %32, 5.000000e-01
  br label %36

34:                                               ; preds = %36
  %35 = add nuw nsw i32 %.024.i, 1
  %exitcond25.not.i = icmp eq i32 %35, 10
  br i1 %exitcond25.not.i, label %CreateSmallPyramid.exit, label %26, !llvm.loop !31

36:                                               ; preds = %36, %26
  %.02123.i = phi i32 [ %.024.i, %26 ], [ %46, %36 ]
  %37 = sub nuw nsw i32 %.02123.i, %.024.i
  %38 = uitofp nneg i32 %37 to float
  %39 = fmul float %38, 2.000000e+00
  %40 = fmul float %39, 5.000000e-01
  %41 = fadd float %33, %40
  %42 = fadd float %25, %41
  %43 = fadd float %42, -5.000000e-01
  store float %43, ptr %12, align 4, !tbaa !20
  store float %31, ptr %.sroa.2.0..sroa_idx.i, align 8, !tbaa !20
  %44 = call i64 @b2CreateBody(i32 %0, ptr noundef nonnull %2) #8
  %45 = call i64 @b2CreatePolygonShape(i64 %44, ptr noundef nonnull %3, ptr noundef nonnull %4) #8
  %46 = add nuw nsw i32 %.02123.i, 1
  %exitcond.not.i = icmp eq i32 %46, 10
  br i1 %exitcond.not.i, label %34, label %36, !llvm.loop !32

CreateSmallPyramid.exit:                          ; preds = %34
  call void @llvm.lifetime.end.p0(i64 144, ptr nonnull %4) #8
  call void @llvm.lifetime.end.p0(i64 72, ptr nonnull %3) #8
  call void @llvm.lifetime.end.p0(i64 80, ptr nonnull %2) #8
  %47 = add nuw nsw i32 %.03643, 1
  %exitcond46.not = icmp eq i32 %47, 20
  br i1 %exitcond46.not, label %18, label %21, !llvm.loop !33
}